target datalayout = "e-m:e-p270:32:32-p271:32:32-p272:64:64-i64:64-i128:128-f80:128-n8:16:32:64-S128"
target triple = "x86_64-pc-linux-gnu"

%struct.DES_cblock_st = type { [8 x i8] }

; Function Attrs: nounwind uwtable
define hidden void @DES_ecb3_encrypt(ptr noundef %0, ptr noundef %1, ptr noundef %2, ptr noundef %3, ptr noundef %4, i32 noundef %5) #0 {
  %7 = alloca ptr, align 8
  %8 = alloca ptr, align 8
  %9 = alloca ptr, align 8
  %10 = alloca ptr, align 8
  %11 = alloca ptr, align 8
  %12 = alloca i32, align 4
  %13 = alloca i32, align 4
  %14 = alloca i32, align 4
  %15 = alloca [2 x i32], align 4
  %16 = alloca ptr, align 8
  %17 = alloca ptr, align 8
  store ptr %0, ptr %7, align 8, !tbaa !6
  store ptr %1, ptr %8, align 8, !tbaa !6
  store ptr %2, ptr %9, align 8, !tbaa !11
  store ptr %3, ptr %10, align 8, !tbaa !11
  store ptr %4, ptr %11, align 8, !tbaa !11
  store i32 %5, ptr %12, align 4, !tbaa !16
  call void @llvm.lifetime.start.p0(i64 4, ptr %13) #2
  call void @llvm.lifetime.start.p0(i64 4, ptr %14) #2
  call void @llvm.lifetime.start.p0(i64 8, ptr %15) #2
  call void @llvm.lifetime.start.p0(i64 8, ptr %16) #2
  %18 = load ptr, ptr %7, align 8, !tbaa !6
  %19 = getelementptr inbounds nuw %struct.DES_cblock_st, ptr %18, i32 0, i32 0
  %20 = getelementptr inbounds [8 x i8], ptr %19, i64 0, i64 0
  store ptr %20, ptr %16, align 8, !tbaa !13
  call void @llvm.lifetime.start.p0(i64 8, ptr %17) #2
  %21 = load ptr, ptr %8, align 8, !tbaa !6
  %22 = getelementptr inbounds nuw %struct.DES_cblock_st, ptr %21, i32 0, i32 0
  %23 = getelementptr inbounds [8 x i8], ptr %22, i64 0, i64 0
  store ptr %23, ptr %17, align 8, !tbaa !13
  %24 = load ptr, ptr %16, align 8, !tbaa !13
  %25 = getelementptr inbounds nuw i8, ptr %24, i32 1
  store ptr %25, ptr %16, align 8, !tbaa !13
  %26 = load i8, ptr %24, align 1, !tbaa !15
  %27 = zext i8 %26 to i32
  store i32 %27, ptr %13, align 4, !tbaa !16
  %28 = load ptr, ptr %16, align 8, !tbaa !13
  %29 = getelementptr inbounds nuw i8, ptr %28, i32 1
  store ptr %29, ptr %16, align 8, !tbaa !13
  %30 = load i8, ptr %28, align 1, !tbaa !15
  %31 = zext i8 %30 to i32
  %32 = shl i32 %31, 8
  %33 = load i32, ptr %13, align 4, !tbaa !16
  %34 = or i32 %33, %32
  store i32 %34, ptr %13, align 4, !tbaa !16
  %35 = load ptr, ptr %16, align 8, !tbaa !13
  %36 = getelementptr inbounds nuw i8, ptr %35, i32 1
  store ptr %36, ptr %16, align 8, !tbaa !13
  %37 = load i8, ptr %35, align 1, !tbaa !15
  %38 = zext i8 %37 to i32
  %39 = shl i32 %38, 16
  %40 = load i32, ptr %13, align 4, !tbaa !16
  %41 = or i32 %40, %39
  store i32 %41, ptr %13, align 4, !tbaa !16
  %42 = load ptr, ptr %16, align 8, !tbaa !13
  %43 = getelementptr inbounds nuw i8, ptr %42, i32 1
  store ptr %43, ptr %16, align 8, !tbaa !13
  %44 = load i8, ptr %42, align 1, !tbaa !15
  %45 = zext i8 %44 to i32
  %46 = shl i32 %45, 24
  %47 = load i32, ptr %13, align 4, !tbaa !16
  %48 = or i32 %47, %46
  store i32 %48, ptr %13, align 4, !tbaa !16
  %49 = load ptr, ptr %16, align 8, !tbaa !13
  %50 = getelementptr inbounds nuw i8, ptr %49, i32 1
  store ptr %50, ptr %16, align 8, !tbaa !13
  %51 = load i8, ptr %49, align 1, !tbaa !15
  %52 = zext i8 %51 to i32
  store i32 %52, ptr %14, align 4, !tbaa !16
  %53 = load ptr, ptr %16, align 8, !tbaa !13
  %54 = getelementptr inbounds nuw i8, ptr %53, i32 1
  store ptr %54, ptr %16, align 8, !tbaa !13
  %55 = load i8, ptr %53, align 1, !tbaa !15
  %56 = zext i8 %55 to i32
  %57 = shl i32 %56, 8
  %58 = load i32, ptr %14, align 4, !tbaa !16
  %59 = or i32 %58, %57
  store i32 %59, ptr %14, align 4, !tbaa !16
  %60 = load ptr, ptr %16, align 8, !tbaa !13
  %61 = getelementptr inbounds nuw i8, ptr %60, i32 1
  store ptr %61, ptr %16, align 8, !tbaa !13
  %62 = load i8, ptr %60, align 1, !tbaa !15
  %63 = zext i8 %62 to i32
  %64 = shl i32 %63, 16
  %65 = load i32, ptr %14, align 4, !tbaa !16
  %66 = or i32 %65, %64
  store i32 %66, ptr %14, align 4, !tbaa !16
  %67 = load ptr, ptr %16, align 8, !tbaa !13
  %68 = getelementptr inbounds nuw i8, ptr %67, i32 1
  store ptr %68, ptr %16, align 8, !tbaa !13
  %69 = load i8, ptr %67, align 1, !tbaa !15
  %70 = zext i8 %69 to i32
  %71 = shl i32 %70, 24
  %72 = load i32, ptr %14, align 4, !tbaa !16
  %73 = or i32 %72, %71
  store i32 %73, ptr %14, align 4, !tbaa !16
  %74 = load i32, ptr %13, align 4, !tbaa !16
  %75 = getelementptr inbounds [2 x i32], ptr %15, i64 0, i64 0
  store i32 %74, ptr %75, align 4, !tbaa !16
  %76 = load i32, ptr %14, align 4, !tbaa !16
  %77 = getelementptr inbounds [2 x i32], ptr %15, i64 0, i64 1
  store i32 %76, ptr %77, align 4, !tbaa !16
  %78 = load i32, ptr %12, align 4, !tbaa !16
  %79 = icmp ne i32 %78, 0
  br i1 %79, label %80, label %85

80:                                               ; preds = %6
  %81 = getelementptr inbounds [2 x i32], ptr %15, i64 0, i64 0
  %82 = load ptr, ptr %9, align 8, !tbaa !11
  %83 = load ptr, ptr %10, align 8, !tbaa !11
  %84 = load ptr, ptr %11, align 8, !tbaa !11
  call void @DES_encrypt3(ptr noundef %81, ptr noundef %82, ptr noundef %83, ptr noundef %84)
  br label %90

85:                                               ; preds = %6
  %86 = getelementptr inbounds [2 x i32], ptr %15, i64 0, i64 0
  %87 = load ptr, ptr %9, align 8, !tbaa !11
  %88 = load ptr, ptr %10, align 8, !tbaa !11
  %89 = load ptr, ptr %11, align 8, !tbaa !11
  call void @DES_decrypt3(ptr noundef %86, ptr noundef %87, ptr noundef %88, ptr noundef %89)
  br label %90

90:                                               ; preds = %85, %80
  %91 = getelementptr inbounds [2 x i32], ptr %15, i64 0, i64 0
  %92 = load i32, ptr %91, align 4, !tbaa !16
  store i32 %92, ptr %13, align 4, !tbaa !16
  %93 = getelementptr inbounds [2 x i32], ptr %15, i64 0, i64 1
  %94 = load i32, ptr %93, align 4, !tbaa !16
  store i32 %94, ptr %14, align 4, !tbaa !16
  %95 = load i32, ptr %13, align 4, !tbaa !16
  %96 = and i32 %95, 255
  %97 = trunc i32 %96 to i8
  %98 = load ptr, ptr %17, align 8, !tbaa !13
  %99 = getelementptr inbounds nuw i8, ptr %98, i32 1
  store ptr %99, ptr %17, align 8, !tbaa !13
  store i8 %97, ptr %98, align 1, !tbaa !15
  %100 = load i32, ptr %13, align 4, !tbaa !16
  %101 = lshr i32 %100, 8
  %102 = and i32 %101, 255
  %103 = trunc i32 %102 to i8
  %104 = load ptr, ptr %17, align 8, !tbaa !13
  %105 = getelementptr inbounds nuw i8, ptr %104, i32 1
  store ptr %105, ptr %17, align 8, !tbaa !13
  store i8 %103, ptr %104, align 1, !tbaa !15
  %106 = load i32, ptr %13, align 4, !tbaa !16
  %107 = lshr i32 %106, 16
  %108 = and i32 %107, 255
  %109 = trunc i32 %108 to i8
  %110 = load ptr, ptr %17, align 8, !tbaa !13
  %111 = getelementptr inbounds nuw i8, ptr %110, i32 1
  store ptr %111, ptr %17, align 8, !tbaa !13
  store i8 %109, ptr %110, align 1, !tbaa !15
  %112 = load i32, ptr %13, align 4, !tbaa !16
  %113 = lshr i32 %112, 24
  %114 = and i32 %113, 255
  %115 = trunc i32 %114 to i8
  %116 = load ptr, ptr %17, align 8, !tbaa !13
  %117 = getelementptr inbounds nuw i8, ptr %116, i32 1
  store ptr %117, ptr %17, align 8, !tbaa !13
  store i8 %115, ptr %116, align 1, !tbaa !15
  %118 = load i32, ptr %14, align 4, !tbaa !16
  %119 = and i32 %118, 255
  %120 = trunc i32 %119 to i8
  %121 = load ptr, ptr %17, align 8, !tbaa !13
  %122 = getelementptr inbounds nuw i8, ptr %121, i32 1
  store ptr %122, ptr %17, align 8, !tbaa !13
  store i8 %120, ptr %121, align 1, !tbaa !15
  %123 = load i32, ptr %14, align 4, !tbaa !16
  %124 = lshr i32 %123, 8
  %125 = and i32 %124, 255
  %126 = trunc i32 %125 to i8
  %127 = load ptr, ptr %17, align 8, !tbaa !13
  %128 = getelementptr inbounds nuw i8, ptr %127, i32 1
  store ptr %128, ptr %17, align 8, !tbaa !13
  store i8 %126, ptr %127, align 1, !tbaa !15
  %129 = load i32, ptr %14, align 4, !tbaa !16
  %130 = lshr i32 %129, 16
  %131 = and i32 %130, 255
  %132 = trunc i32 %131 to i8
  %133 = load ptr, ptr %17, align 8, !tbaa !13
  %134 = getelementptr inbounds nuw i8, ptr %133, i32 1
  store ptr %134, ptr %17, align 8, !tbaa !13
  store i8 %132, ptr %133, align 1, !tbaa !15
  %135 = load i32, ptr %14, align 4, !tbaa !16
  %136 = lshr i32 %135, 24
  %137 = and i32 %136, 255
  %138 = trunc i32 %137 to i8
  %139 = load ptr, ptr %17, align 8, !tbaa !13
  %140 = getelementptr inbounds nuw i8, ptr %139, i32 1
  store ptr %140, ptr %17, align 8, !tbaa !13
  store i8 %138, ptr %139, align 1, !tbaa !15
  call void @llvm.lifetime.end.p0(i64 8, ptr %17) #2
  call void @llvm.lifetime.end.p0(i64 8, ptr %16) #2
  call void @llvm.lifetime.end.p0(i64 8, ptr %15) #2
  call void @llvm.lifetime.end.p0(i64 4, ptr %14) #2
  call void @llvm.lifetime.end.p0(i64 4, ptr %13) #2
  ret void
}