; Function Attrs: mustprogress nofree norecurse nosync nounwind willreturn memory(argmem: readwrite) uwtable
define hidden void @DES_ecb3_encrypt(ptr noundef readonly captures(none) %0, ptr noundef writeonly captures(none) initializes((0, 8)) %1, ptr noundef %2, ptr noundef %3, ptr noundef %4, i32 noundef %5) local_unnamed_addr #2 {
  %7 = alloca [2 x i32], align 4
  call void @llvm.lifetime.start.p0(i64 8, ptr nonnull %7) #5
  %8 = load i32, ptr %0, align 1
  %9 = getelementptr inbounds nuw i8, ptr %0, i64 4
  %10 = load i32, ptr %9, align 1
  store i32 %8, ptr %7, align 4, !tbaa !9
  %11 = getelementptr inbounds nuw i8, ptr %7, i64 4
  store i32 %10, ptr %11, align 4, !tbaa !9
  %.not = icmp eq i32 %5, 0
  br i1 %.not, label %13, label %12

12:                                               ; preds = %6
  call void @DES_encrypt3(ptr noundef nonnull %7, ptr noundef %2, ptr noundef %3, ptr noundef %4)
  br label %14

13:                                               ; preds = %6
  call void @DES_decrypt3(ptr noundef nonnull %7, ptr noundef %2, ptr noundef %3, ptr noundef %4)
  br label %14

14:                                               ; preds = %13, %12
  %15 = load i32, ptr %7, align 4, !tbaa !9
  %16 = load i32, ptr %11, align 4, !tbaa !9
  %17 = trunc i32 %15 to i8
  %18 = getelementptr inbounds nuw i8, ptr %1, i64 1
  store i8 %17, ptr %1, align 1, !tbaa !6
  %19 = lshr i32 %15, 8
  %20 = trunc i32 %19 to i8
  %21 = getelementptr inbounds nuw i8, ptr %1, i64 2
  store i8 %20, ptr %18, align 1, !tbaa !6
  %22 = lshr i32 %15, 16
  %23 = trunc i32 %22 to i8
  %24 = getelementptr inbounds nuw i8, ptr %1, i64 3
  store i8 %23, ptr %21, align 1, !tbaa !6
  %25 = lshr i32 %15, 24
  %26 = trunc nuw i32 %25 to i8
  %27 = getelementptr inbounds nuw i8, ptr %1, i64 4
  store i8 %26, ptr %24, align 1, !tbaa !6
  %28 = trunc i32 %16 to i8
  %29 = getelementptr inbounds nuw i8, ptr %1, i64 5
  store i8 %28, ptr %27, align 1, !tbaa !6
  %30 = lshr i32 %16, 8
  %31 = trunc i32 %30 to i8
  %32 = getelementptr inbounds nuw i8, ptr %1, i64 6
  store i8 %31, ptr %29, align 1, !tbaa !6
  %33 = lshr i32 %16, 16
  %34 = trunc i32 %33 to i8
  %35 = getelementptr inbounds nuw i8, ptr %1, i64 7
  store i8 %34, ptr %32, align 1, !tbaa !6
  %36 = lshr i32 %16, 24
  %37 = trunc nuw i32 %36 to i8
  store i8 %37, ptr %35, align 1, !tbaa !6
  call void @llvm.lifetime.end.p0(i64 8, ptr nonnull %7) #5
  ret void
}